; Function Attrs: nounwind uwtable
define noalias nonnull ptr @l_List_filterAuxM___at___private_Lean_Elab_SyntheticMVars_0__Lean_Elab_Term_synthesizeSyntheticMVarsStep___spec__1___lambda__1___boxed(ptr noundef %0, ptr noundef %1, ptr noundef %2, ptr noundef %3, ptr noundef %4, ptr noundef %5, ptr noundef %6, ptr noundef %7, ptr noundef %8) local_unnamed_addr #0 {
  %10 = ptrtoint ptr %0 to i64
  %11 = and i64 %10, 1
  %.not = icmp eq i64 %11, 0
  br i1 %.not, label %12, label %lean_dec.exit24

12:                                               ; preds = %9
  %13 = load i32, ptr %0, align 4, !tbaa !7
  %14 = icmp sgt i32 %13, 1
  br i1 %14, label %15, label %17, !prof !12

15:                                               ; preds = %12
  %16 = add nsw i32 %13, -1
  store i32 %16, ptr %0, align 4, !tbaa !7
  br label %lean_dec.exit24

17:                                               ; preds = %12
  %.not.i = icmp eq i32 %13, 0
  br i1 %.not.i, label %lean_dec.exit24, label %18

18:                                               ; preds = %17
  tail call void @lean_dec_ref_cold(ptr noundef nonnull %0) #7
  br label %lean_dec.exit24

lean_dec.exit24:                                  ; preds = %18, %17, %15, %9
  %19 = and i64 %10, 510
  %20 = icmp eq i64 %19, 0
  tail call void @lean_inc_heartbeat() #7
  %21 = tail call noalias ptr @mi_malloc_small(i64 noundef 24) #7
  %22 = icmp eq ptr %21, null
  br i1 %20, label %23, label %25

23:                                               ; preds = %lean_dec.exit24
  br i1 %22, label %24, label %l_List_filterAuxM___at___private_Lean_Elab_SyntheticMVars_0__Lean_Elab_Term_synthesizeSyntheticMVarsStep___spec__1___lambda__1.exit

24:                                               ; preds = %23
  tail call void @lean_internal_panic_out_of_memory() #8
  unreachable

25:                                               ; preds = %lean_dec.exit24
  br i1 %22, label %26, label %l_List_filterAuxM___at___private_Lean_Elab_SyntheticMVars_0__Lean_Elab_Term_synthesizeSyntheticMVarsStep___spec__1___lambda__1.exit

26:                                               ; preds = %25
  tail call void @lean_internal_panic_out_of_memory() #8
  unreachable

l_List_filterAuxM___at___private_Lean_Elab_SyntheticMVars_0__Lean_Elab_Term_synthesizeSyntheticMVarsStep___spec__1___lambda__1.exit: ; preds = %23, %25
  %.sink.i = phi ptr [ inttoptr (i64 3 to ptr), %23 ], [ inttoptr (i64 1 to ptr), %25 ]
  %27 = getelementptr inbounds nuw i8, ptr %21, i64 4
  store i32 1, ptr %21, align 4, !tbaa !7
  store i32 131096, ptr %27, align 4
  %28 = getelementptr inbounds nuw i8, ptr %21, i64 8
  store ptr %.sink.i, ptr %28, align 8, !tbaa !10
  %29 = getelementptr inbounds nuw i8, ptr %21, i64 16
  store ptr %8, ptr %29, align 8, !tbaa !10
  %30 = ptrtoint ptr %7 to i64
  %31 = and i64 %30, 1
  %.not39 = icmp eq i64 %31, 0
  br i1 %.not39, label %32, label %lean_dec.exit23

32:                                               ; preds = %l_List_filterAuxM___at___private_Lean_Elab_SyntheticMVars_0__Lean_Elab_Term_synthesizeSyntheticMVarsStep___spec__1___lambda__1.exit
  %33 = load i32, ptr %7, align 4, !tbaa !7
  %34 = icmp sgt i32 %33, 1
  br i1 %34, label %35, label %37, !prof !12

35:                                               ; preds = %32
  %36 = add nsw i32 %33, -1
  store i32 %36, ptr %7, align 4, !tbaa !7
  br label %lean_dec.exit23

37:                                               ; preds = %32
  %.not.i25 = icmp eq i32 %33, 0
  br i1 %.not.i25, label %lean_dec.exit23, label %38

38:                                               ; preds = %37
  tail call void @lean_dec_ref_cold(ptr noundef nonnull %7) #7
  br label %lean_dec.exit23

lean_dec.exit23:                                  ; preds = %38, %37, %35, %l_List_filterAuxM___at___private_Lean_Elab_SyntheticMVars_0__Lean_Elab_Term_synthesizeSyntheticMVarsStep___spec__1___lambda__1.exit
  %39 = ptrtoint ptr %6 to i64
  %40 = and i64 %39, 1
  %.not40 = icmp eq i64 %40, 0
  br i1 %.not40, label %41, label %lean_dec.exit22

41:                                               ; preds = %lean_dec.exit23
  %42 = load i32, ptr %6, align 4, !tbaa !7
  %43 = icmp sgt i32 %42, 1
  br i1 %43, label %44, label %46, !prof !12

44:                                               ; preds = %41
  %45 = add nsw i32 %42, -1
  store i32 %45, ptr %6, align 4, !tbaa !7
  br label %lean_dec.exit22

46:                                               ; preds = %41
  %.not.i27 = icmp eq i32 %42, 0
  br i1 %.not.i27, label %lean_dec.exit22, label %47

47:                                               ; preds = %46
  tail call void @lean_dec_ref_cold(ptr noundef nonnull %6) #7
  br label %lean_dec.exit22

lean_dec.exit22:                                  ; preds = %47, %46, %44, %lean_dec.exit23
  %48 = ptrtoint ptr %5 to i64
  %49 = and i64 %48, 1
  %.not41 = icmp eq i64 %49, 0
  br i1 %.not41, label %50, label %lean_dec.exit21

50:                                               ; preds = %lean_dec.exit22
  %51 = load i32, ptr %5, align 4, !tbaa !7
  %52 = icmp sgt i32 %51, 1
  br i1 %52, label %53, label %55, !prof !12

53:                                               ; preds = %50
  %54 = add nsw i32 %51, -1
  store i32 %54, ptr %5, align 4, !tbaa !7
  br label %lean_dec.exit21

55:                                               ; preds = %50
  %.not.i29 = icmp eq i32 %51, 0
  br i1 %.not.i29, label %lean_dec.exit21, label %56

56:                                               ; preds = %55
  tail call void @lean_dec_ref_cold(ptr noundef nonnull %5) #7
  br label %lean_dec.exit21

lean_dec.exit21:                                  ; preds = %56, %55, %53, %lean_dec.exit22
  %57 = ptrtoint ptr %4 to i64
  %58 = and i64 %57, 1
  %.not42 = icmp eq i64 %58, 0
  br i1 %.not42, label %59, label %lean_dec.exit20

59:                                               ; preds = %lean_dec.exit21
  %60 = load i32, ptr %4, align 4, !tbaa !7
  %61 = icmp sgt i32 %60, 1
  br i1 %61, label %62, label %64, !prof !12

62:                                               ; preds = %59
  %63 = add nsw i32 %60, -1
  store i32 %63, ptr %4, align 4, !tbaa !7
  br label %lean_dec.exit20

64:                                               ; preds = %59
  %.not.i31 = icmp eq i32 %60, 0
  br i1 %.not.i31, label %lean_dec.exit20, label %65

65:                                               ; preds = %64
  tail call void @lean_dec_ref_cold(ptr noundef nonnull %4) #7
  br label %lean_dec.exit20

lean_dec.exit20:                                  ; preds = %65, %64, %62, %lean_dec.exit21
  %66 = ptrtoint ptr %3 to i64
  %67 = and i64 %66, 1
  %.not43 = icmp eq i64 %67, 0
  br i1 %.not43, label %68, label %lean_dec.exit19

68:                                               ; preds = %lean_dec.exit20
  %69 = load i32, ptr %3, align 4, !tbaa !7
  %70 = icmp sgt i32 %69, 1
  br i1 %70, label %71, label %73, !prof !12

71:                                               ; preds = %68
  %72 = add nsw i32 %69, -1
  store i32 %72, ptr %3, align 4, !tbaa !7
  br label %lean_dec.exit19

73:                                               ; preds = %68
  %.not.i33 = icmp eq i32 %69, 0
  br i1 %.not.i33, label %lean_dec.exit19, label %74

74:                                               ; preds = %73
  tail call void @lean_dec_ref_cold(ptr noundef nonnull %3) #7
  br label %lean_dec.exit19

lean_dec.exit19:                                  ; preds = %74, %73, %71, %lean_dec.exit20
  %75 = ptrtoint ptr %2 to i64
  %76 = and i64 %75, 1
  %.not44 = icmp eq i64 %76, 0
  br i1 %.not44, label %77, label %lean_dec.exit18

77:                                               ; preds = %lean_dec.exit19
  %78 = load i32, ptr %2, align 4, !tbaa !7
  %79 = icmp sgt i32 %78, 1
  br i1 %79, label %80, label %82, !prof !12

80:                                               ; preds = %77
  %81 = add nsw i32 %78, -1
  store i32 %81, ptr %2, align 4, !tbaa !7
  br label %lean_dec.exit18

82:                                               ; preds = %77
  %.not.i35 = icmp eq i32 %78, 0
  br i1 %.not.i35, label %lean_dec.exit18, label %83

83:                                               ; preds = %82
  tail call void @lean_dec_ref_cold(ptr noundef nonnull %2) #7
  br label %lean_dec.exit18

lean_dec.exit18:                                  ; preds = %83, %82, %80, %lean_dec.exit19
  %84 = ptrtoint ptr %1 to i64
  %85 = and i64 %84, 1
  %.not45 = icmp eq i64 %85, 0
  br i1 %.not45, label %86, label %lean_dec.exit

86:                                               ; preds = %lean_dec.exit18
  %87 = load i32, ptr %1, align 4, !tbaa !7
  %88 = icmp sgt i32 %87, 1
  br i1 %88, label %89, label %91, !prof !12

89:                                               ; preds = %86
  %90 = add nsw i32 %87, -1
  store i32 %90, ptr %1, align 4, !tbaa !7
  br label %lean_dec.exit

91:                                               ; preds = %86
  %.not.i37 = icmp eq i32 %87, 0
  br i1 %.not.i37, label %lean_dec.exit, label %92

92:                                               ; preds = %91
  tail call void @lean_dec_ref_cold(ptr noundef nonnull %1) #7
  br label %lean_dec.exit

lean_dec.exit:                                    ; preds = %92, %91, %89, %lean_dec.exit18
  ret ptr %21
}